target datalayout = "e-m:e-p270:32:32-p271:32:32-p272:64:64-i64:64-i128:128-f80:128-n8:16:32:64-S128"
target triple = "x86_64-pc-linux-gnu"

%struct.option = type { i32, i32, ptr, ptr, ptr, ptr, i32, ptr, i64, ptr, i64, ptr }

@.str.33 = private unnamed_addr constant [1 x i8] zeroinitializer, align 1
@.str.62 = private unnamed_addr constant [8 x i8] c"--empty\00", align 1
@.str.74 = private unnamed_addr constant [17 x i8] c"builtin/revert.c\00", align 1
@.str.75 = private unnamed_addr constant [41 x i8] c"option callback does not expect negation\00", align 1
@.str.76 = private unnamed_addr constant [5 x i8] c"stop\00", align 1
@.str.77 = private unnamed_addr constant [5 x i8] c"drop\00", align 1
@.str.78 = private unnamed_addr constant [5 x i8] c"keep\00", align 1
@.str.79 = private unnamed_addr constant [29 x i8] c"invalid value for '%s': '%s'\00", align 1
@git_gettext_enabled = external global i32, align 4

; Function Attrs: inlinehint nounwind uwtable
define internal i32 @const_error() #5 {
  ret i32 -1
}

; Function Attrs: inlinehint nounwind uwtable
define internal ptr @_(ptr noundef %0) #5 {
  %2 = alloca ptr, align 8
  %3 = alloca ptr, align 8
  store ptr %0, ptr %3, align 8, !tbaa !11
  %4 = load ptr, ptr %3, align 8, !tbaa !11
  %5 = load i8, ptr %4, align 1, !tbaa !76
  %6 = icmp ne i8 %5, 0
  br i1 %6, label %8, label %7

7:                                                ; preds = %1
  store ptr @.str.33, ptr %2, align 8
  br label %16

8:                                                ; preds = %1
  %9 = load i32, ptr @git_gettext_enabled, align 4, !tbaa !4
  %10 = icmp ne i32 %9, 0
  br i1 %10, label %13, label %11

11:                                               ; preds = %8
  %12 = load ptr, ptr %3, align 8, !tbaa !11
  store ptr %12, ptr %2, align 8
  br label %16

13:                                               ; preds = %8
  %14 = load ptr, ptr %3, align 8, !tbaa !11
  %15 = call ptr @dcgettext(ptr noundef null, ptr noundef %14, i32 noundef 5) #9
  store ptr %15, ptr %2, align 8
  br label %16

16:                                               ; preds = %13, %11, %7
  %17 = load ptr, ptr %2, align 8
  ret ptr %17
}

; Function Attrs: nounwind uwtable
define internal i32 @parse_opt_empty(ptr noundef %0, ptr noundef %1, i32 noundef %2) #0 {
  %4 = alloca i32, align 4
  %5 = alloca ptr, align 8
  %6 = alloca ptr, align 8
  %7 = alloca i32, align 4
  %8 = alloca ptr, align 8
  %9 = alloca i32, align 4
  store ptr %0, ptr %5, align 8, !tbaa !40
  store ptr %1, ptr %6, align 8, !tbaa !11
  store i32 %2, ptr %7, align 4, !tbaa !4
  call void @llvm.lifetime.start.p0(i64 8, ptr %8) #9
  %10 = load ptr, ptr %5, align 8, !tbaa !40
  %11 = getelementptr inbounds nuw %struct.option, ptr %10, i32 0, i32 3
  %12 = load ptr, ptr %11, align 8, !tbaa !31
  store ptr %12, ptr %8, align 8, !tbaa !77
  br label %13

13:                                               ; preds = %3
  %14 = load i32, ptr %7, align 4, !tbaa !4
  %15 = icmp ne i32 %14, 0
  br i1 %15, label %16, label %17

16:                                               ; preds = %13
  call void (ptr, i32, ptr, ...) @BUG_fl(ptr noundef @.str.74, i32 noundef 58, ptr noundef @.str.75) #10
  unreachable

17:                                               ; preds = %13
  br label %18

18:                                               ; preds = %17
  br label %19

19:                                               ; preds = %18
  %20 = load ptr, ptr %6, align 8, !tbaa !11
  %21 = call i32 @strcmp(ptr noundef %20, ptr noundef @.str.76) #11
  %22 = icmp ne i32 %21, 0
  br i1 %22, label %25, label %23

23:                                               ; preds = %19
  %24 = load ptr, ptr %8, align 8, !tbaa !77
  store i32 0, ptr %24, align 4, !tbaa !4
  br label %44

25:                                               ; preds = %19
  %26 = load ptr, ptr %6, align 8, !tbaa !11
  %27 = call i32 @strcmp(ptr noundef %26, ptr noundef @.str.77) #11
  %28 = icmp ne i32 %27, 0
  br i1 %28, label %31, label %29

29:                                               ; preds = %25
  %30 = load ptr, ptr %8, align 8, !tbaa !77
  store i32 1, ptr %30, align 4, !tbaa !4
  br label %43

31:                                               ; preds = %25
  %32 = load ptr, ptr %6, align 8, !tbaa !11
  %33 = call i32 @strcmp(ptr noundef %32, ptr noundef @.str.78) #11
  %34 = icmp ne i32 %33, 0
  br i1 %34, label %37, label %35

35:                                               ; preds = %31
  %36 = load ptr, ptr %8, align 8, !tbaa !77
  store i32 2, ptr %36, align 4, !tbaa !4
  br label %42

37:                                               ; preds = %31
  %38 = call ptr @_(ptr noundef @.str.79)
  %39 = load ptr, ptr %6, align 8, !tbaa !11
  %40 = call i32 (ptr, ...) @error(ptr noundef %38, ptr noundef @.str.62, ptr noundef %39)
  %41 = call i32 @const_error()
  store i32 %41, ptr %4, align 4
  store i32 1, ptr %9, align 4
  br label %45

42:                                               ; preds = %35
  br label %43

43:                                               ; preds = %42, %29
  br label %44

44:                                               ; preds = %43, %23
  store i32 0, ptr %4, align 4
  store i32 1, ptr %9, align 4
  br label %45

45:                                               ; preds = %44, %37
  call void @llvm.lifetime.end.p0(i64 8, ptr %8) #9
  %46 = load i32, ptr %4, align 4
  ret i32 %46
}