; Function Attrs: nounwind uwtable
define internal range(i32 -1, 1) i32 @parse_opt_empty(ptr noundef readonly captures(none) %0, ptr noundef %1, i32 noundef %2) #0 {
  %4 = getelementptr inbounds nuw i8, ptr %0, i64 16
  %5 = load ptr, ptr %4, align 8, !tbaa !26
  %.not = icmp eq i32 %2, 0
  br i1 %.not, label %7, label %6

6:                                                ; preds = %3
  tail call void (ptr, i32, ptr, ...) @BUG_fl(ptr noundef nonnull @.str.74, i32 noundef 58, ptr noundef nonnull @.str.75) #14
  unreachable

7:                                                ; preds = %3
  %8 = tail call i32 @strcmp(ptr noundef nonnull dereferenceable(1) %1, ptr noundef nonnull dereferenceable(5) @.str.76) #15
  %.not9 = icmp eq i32 %8, 0
  br i1 %.not9, label %9, label %10

9:                                                ; preds = %7
  store i32 0, ptr %5, align 4, !tbaa !21
  br label %21

10:                                               ; preds = %7
  %11 = tail call i32 @strcmp(ptr noundef nonnull dereferenceable(1) %1, ptr noundef nonnull dereferenceable(5) @.str.77) #15
  %.not10 = icmp eq i32 %11, 0
  br i1 %.not10, label %12, label %13

12:                                               ; preds = %10
  store i32 1, ptr %5, align 4, !tbaa !21
  br label %21

13:                                               ; preds = %10
  %14 = tail call i32 @strcmp(ptr noundef nonnull dereferenceable(1) %1, ptr noundef nonnull dereferenceable(5) @.str.78) #15
  %.not11 = icmp eq i32 %14, 0
  br i1 %.not11, label %15, label %16

15:                                               ; preds = %13
  store i32 2, ptr %5, align 4, !tbaa !21
  br label %21

16:                                               ; preds = %13
  %17 = load i32, ptr @git_gettext_enabled, align 4, !tbaa !21
  %.not4.i = icmp eq i32 %17, 0
  br i1 %.not4.i, label %_.exit, label %18

18:                                               ; preds = %16
  %19 = tail call ptr @dcgettext(ptr noundef null, ptr noundef nonnull @.str.79, i32 noundef 5) #13
  br label %_.exit

_.exit:                                           ; preds = %16, %18
  %.0.i = phi ptr [ %19, %18 ], [ @.str.79, %16 ]
  %20 = tail call i32 (ptr, ...) @error(ptr noundef %.0.i, ptr noundef nonnull @.str.62, ptr noundef nonnull %1) #13
  br label %21

21:                                               ; preds = %9, %15, %12, %_.exit
  %.0 = phi i32 [ -1, %_.exit ], [ 0, %12 ], [ 0, %15 ], [ 0, %9 ]
  ret i32 %.0
}